	.text
	.file	"su3.cpp"
	.globl	main                    // -- Begin function main
	.p2align	3
	.type	main,@function
main:                                   // @main
.Lfunc_begin0:
	.file	1 "/home/rccs-sdt/a01009/sizeless" "su3.cpp"
	.loc	1 163 0                 // su3.cpp:163:0
	.cfi_startproc
// %bb.0:
	str	d10, [sp, #-64]!        // 8-byte Folded Spill
	stp	d9, d8, [sp, #8]        // 16-byte Folded Spill
	str	x28, [sp, #24]          // 8-byte Folded Spill
	stp	x20, x19, [sp, #32]     // 16-byte Folded Spill
	stp	x29, x30, [sp, #48]     // 16-byte Folded Spill
	add	x29, sp, #48            // =48
	sub	sp, sp, #1536           // =1536
	.cfi_def_cfa w29, 16
	.cfi_offset w30, -8
	.cfi_offset w29, -16
	.cfi_offset w19, -24
	.cfi_offset w20, -32
	.cfi_offset w28, -40
	.cfi_offset b8, -48
	.cfi_offset b9, -56
	.cfi_offset b10, -64
	mov	x19, xzr
	add	x20, sp, #384           // =384
	.p2align	2
.LBB0_1:                                // =>This Inner Loop Header: Depth=1
.Ltmp0:
	.loc	1 167 26 prologue_end   // su3.cpp:167:26
	bl	drand48
	fcvt	s0, d0
	.loc	1 167 24 is_stmt 0      // su3.cpp:167:24
	str	s0, [x20, x19]
	.loc	1 167 14                // su3.cpp:167:14
	add	x19, x19, #4            // =4
	cmp	x19, #1152              // =1152
	b.ne	.LBB0_1
// %bb.2:
	.loc	1 0 14                  // su3.cpp:0:14
	mov	x19, xzr
	mov	x20, sp
	.p2align	2
.LBB0_3:                                // =>This Inner Loop Header: Depth=1
	.loc	1 168 26 is_stmt 1      // su3.cpp:168:26
	bl	drand48
	fcvt	s0, d0
	.loc	1 168 24 is_stmt 0      // su3.cpp:168:24
	str	s0, [x20, x19]
	.loc	1 168 14                // su3.cpp:168:14
	add	x19, x19, #4            // =4
	cmp	x19, #384               // =384
	b.ne	.LBB0_3
// %bb.4:
.Ltmp1:
	.loc	1 13 10 is_stmt 1       // su3.cpp:13:10
	ptrue	p0.s
	add	x8, sp, #384            // =384
.Ltmp2:
	.loc	1 23 9                  // su3.cpp:23:9
	add	x9, sp, #384            // =384
	.loc	1 35 9                  // su3.cpp:35:9
	addvl	x10, x8, #9
	.loc	1 36 9                  // su3.cpp:36:9
	addvl	x12, x8, #10
	.loc	1 42 9                  // su3.cpp:42:9
	addvl	x11, x8, #13
.Ltmp3:
	.loc	1 174 1                 // su3.cpp:174:1
	mov	w0, wzr
.Ltmp4:
	.loc	1 23 9                  // su3.cpp:23:9
	ld1w	{ z1.s }, p0/z, [x9]
	.loc	1 24 9                  // su3.cpp:24:9
	ld1w	{ z23.s }, p0/z, [x8, #1, mul vl]
	.loc	1 25 9                  // su3.cpp:25:9
	ld1w	{ z24.s }, p0/z, [x8, #2, mul vl]
	.loc	1 26 9                  // su3.cpp:26:9
	ld1w	{ z25.s }, p0/z, [x8, #3, mul vl]
	.loc	1 34 9                  // su3.cpp:34:9
	addvl	x9, x8, #8
.Ltmp5:
	.loc	1 90 9                  // su3.cpp:90:9
	mov	z28.d, z1.d
.Ltmp6:
	.loc	1 27 9                  // su3.cpp:27:9
	ld1w	{ z20.s }, p0/z, [x8, #4, mul vl]
	.loc	1 28 9                  // su3.cpp:28:9
	ld1w	{ z18.s }, p0/z, [x8, #5, mul vl]
	.loc	1 32 9                  // su3.cpp:32:9
	ld1w	{ z0.s }, p0/z, [x8, #6, mul vl]
	.loc	1 33 9                  // su3.cpp:33:9
	ld1w	{ z7.s }, p0/z, [x8, #7, mul vl]
.Ltmp7:
	.loc	1 95 9                  // su3.cpp:95:9
	mov	z9.d, z0.d
.Ltmp8:
	.loc	1 34 9                  // su3.cpp:34:9
	ld1w	{ z4.s }, p0/z, [x9]
	.loc	1 35 9                  // su3.cpp:35:9
	ld1w	{ z2.s }, p0/z, [x10]
	.loc	1 36 9                  // su3.cpp:36:9
	ld1w	{ z5.s }, p0/z, [x12]
	.loc	1 37 9                  // su3.cpp:37:9
	addvl	x9, x8, #11
	.loc	1 39 5                  // su3.cpp:39:5
	addvl	x10, x8, #12
	.loc	1 37 9                  // su3.cpp:37:9
	ld1w	{ z6.s }, p0/z, [x9]
	.loc	1 41 9                  // su3.cpp:41:9
	ld1w	{ z3.s }, p0/z, [x10]
	.loc	1 42 9                  // su3.cpp:42:9
	ld1w	{ z16.s }, p0/z, [x11]
	.loc	1 44 9                  // su3.cpp:44:9
	addvl	x9, x8, #15
	.loc	1 45 9                  // su3.cpp:45:9
	addvl	x10, x8, #16
	.loc	1 46 9                  // su3.cpp:46:9
	addvl	x11, x8, #17
	.loc	1 43 9                  // su3.cpp:43:9
	addvl	x8, x8, #14
.Ltmp9:
	.loc	1 100 9                 // su3.cpp:100:9
	mov	z10.d, z3.d
.Ltmp10:
	.loc	1 43 9                  // su3.cpp:43:9
	ld1w	{ z22.s }, p0/z, [x8]
	.loc	1 44 9                  // su3.cpp:44:9
	ld1w	{ z21.s }, p0/z, [x9]
	.loc	1 45 9                  // su3.cpp:45:9
	ld1w	{ z19.s }, p0/z, [x10]
	.loc	1 46 9                  // su3.cpp:46:9
	ld1w	{ z17.s }, p0/z, [x11]
.Ltmp11:
	.loc	1 173 15                // su3.cpp:173:15
	adrp	x8, ext
	mov	x9, sp
	ldr	x8, [x8, :lo12:ext]
.Ltmp12:
	.loc	1 87 10                 // su3.cpp:87:10
	ld1w	{ z27.s }, p0/z, [sp]
	.loc	1 88 10                 // su3.cpp:88:10
	ld1w	{ z26.s }, p0/z, [x9, #1, mul vl]
	.loc	1 106 10                // su3.cpp:106:10
	ld1w	{ z29.s }, p0/z, [x9, #2, mul vl]
	.loc	1 107 10                // su3.cpp:107:10
	ld1w	{ z30.s }, p0/z, [x9, #3, mul vl]
	.loc	1 100 9                 // su3.cpp:100:9
	fmul	z10.s, p0/m, z10.s, z27.s
	.loc	1 90 9                  // su3.cpp:90:9
	fmul	z28.s, p0/m, z28.s, z27.s
	.loc	1 102 9                 // su3.cpp:102:9
	fmul	z3.s, p0/m, z3.s, z26.s
	.loc	1 95 9                  // su3.cpp:95:9
	fmul	z9.s, p0/m, z9.s, z27.s
	.loc	1 91 9                  // su3.cpp:91:9
	fmls	z28.s, p0/m, z23.s, z26.s
	.loc	1 103 9                 // su3.cpp:103:9
	fmla	z3.s, p0/m, z16.s, z27.s
	.loc	1 96 9                  // su3.cpp:96:9
	fmls	z9.s, p0/m, z7.s, z26.s
	.loc	1 101 9                 // su3.cpp:101:9
	fmls	z10.s, p0/m, z16.s, z26.s
	.loc	1 109 9                 // su3.cpp:109:9
	fmla	z28.s, p0/m, z24.s, z29.s
	.loc	1 121 9                 // su3.cpp:121:9
	fmla	z3.s, p0/m, z22.s, z30.s
	.loc	1 114 9                 // su3.cpp:114:9
	fmla	z9.s, p0/m, z4.s, z29.s
	.loc	1 119 9                 // su3.cpp:119:9
	fmla	z10.s, p0/m, z22.s, z29.s
	.loc	1 110 9                 // su3.cpp:110:9
	fmls	z28.s, p0/m, z25.s, z30.s
	.loc	1 122 9                 // su3.cpp:122:9
	fmla	z3.s, p0/m, z21.s, z29.s
	.loc	1 115 9                 // su3.cpp:115:9
	fmls	z9.s, p0/m, z2.s, z30.s
	.loc	1 120 9                 // su3.cpp:120:9
	fmls	z10.s, p0/m, z21.s, z30.s
	.loc	1 97 9                  // su3.cpp:97:9
	fmul	z0.s, p0/m, z0.s, z26.s
	.loc	1 92 9                  // su3.cpp:92:9
	fmul	z1.s, p0/m, z1.s, z26.s
	.loc	1 93 9                  // su3.cpp:93:9
	fmla	z1.s, p0/m, z23.s, z27.s
	.loc	1 98 9                  // su3.cpp:98:9
	fmla	z0.s, p0/m, z7.s, z27.s
	.loc	1 111 9                 // su3.cpp:111:9
	fmla	z1.s, p0/m, z24.s, z30.s
	.loc	1 116 9                 // su3.cpp:116:9
	fmla	z0.s, p0/m, z4.s, z30.s
	.loc	1 112 9                 // su3.cpp:112:9
	fmla	z1.s, p0/m, z25.s, z29.s
	.loc	1 117 9                 // su3.cpp:117:9
	fmla	z0.s, p0/m, z2.s, z29.s
	.loc	1 125 10                // su3.cpp:125:10
	ld1w	{ z31.s }, p0/z, [x9, #4, mul vl]
	.loc	1 126 10                // su3.cpp:126:10
	ld1w	{ z8.s }, p0/z, [x9, #5, mul vl]
	.loc	1 130 9                 // su3.cpp:130:9
	fmla	z1.s, p0/m, z20.s, z8.s
	.loc	1 128 9                 // su3.cpp:128:9
	fmla	z28.s, p0/m, z20.s, z31.s
	.loc	1 135 9                 // su3.cpp:135:9
	fmla	z0.s, p0/m, z5.s, z8.s
	.loc	1 140 9                 // su3.cpp:140:9
	fmla	z3.s, p0/m, z19.s, z8.s
	.loc	1 138 9                 // su3.cpp:138:9
	fmla	z10.s, p0/m, z19.s, z31.s
	.loc	1 133 9                 // su3.cpp:133:9
	fmla	z9.s, p0/m, z5.s, z31.s
	.loc	1 131 9                 // su3.cpp:131:9
	fmla	z1.s, p0/m, z18.s, z31.s
	.loc	1 129 9                 // su3.cpp:129:9
	fmls	z28.s, p0/m, z18.s, z8.s
	.loc	1 136 9                 // su3.cpp:136:9
	fmla	z0.s, p0/m, z6.s, z31.s
	.loc	1 141 9                 // su3.cpp:141:9
	fmla	z3.s, p0/m, z17.s, z31.s
	.loc	1 134 9                 // su3.cpp:134:9
	fmls	z9.s, p0/m, z6.s, z8.s
	.loc	1 139 9                 // su3.cpp:139:9
	fmls	z10.s, p0/m, z17.s, z8.s
	.loc	1 144 3                 // su3.cpp:144:3
	st1w	{ z28.s }, p0, [x8]
	.loc	1 145 3                 // su3.cpp:145:3
	st1w	{ z1.s }, p0, [x8, #1, mul vl]
	.loc	1 146 3                 // su3.cpp:146:3
	st1w	{ z9.s }, p0, [x8, #2, mul vl]
	.loc	1 147 3                 // su3.cpp:147:3
	st1w	{ z0.s }, p0, [x8, #3, mul vl]
	.loc	1 148 3                 // su3.cpp:148:3
	st1w	{ z10.s }, p0, [x8, #4, mul vl]
	.loc	1 149 3                 // su3.cpp:149:3
	st1w	{ z3.s }, p0, [x8, #5, mul vl]
.Ltmp13:
	.loc	1 174 1                 // su3.cpp:174:1
	add	sp, sp, #1536           // =1536
	ldp	x29, x30, [sp, #48]     // 16-byte Folded Reload
	ldr	x28, [sp, #24]          // 8-byte Folded Reload
	ldp	x20, x19, [sp, #32]     // 16-byte Folded Reload
	ldp	d9, d8, [sp, #8]        // 16-byte Folded Reload
	ldr	d10, [sp], #64          // 8-byte Folded Reload
	ret
.Ltmp14:
.Lfunc_end0:
	.size	main, .Lfunc_end0-main
	.cfi_endproc
                                        // -- End function
	.section	.fj.compile_info, "e"
	.ascii	"C++::clang-libstdc++"
	.section	".note.GNU-stack","",@progbits